target datalayout = "e-m:e-p270:32:32-p271:32:32-p272:64:64-i64:64-i128:128-f80:128-n8:16:32:64-S128"
target triple = "x86_64-pc-linux-gnu"

%"struct.Luau::EqSatSimplification::TTable" = type { %"class.std::vector", %"class.std::vector.0" }
%"class.std::vector" = type { %"struct.std::_Vector_base" }
%"struct.std::_Vector_base" = type { %"struct.std::_Vector_base<unsigned int, std::allocator<unsigned int>>::_Vector_impl" }
%"struct.std::_Vector_base<unsigned int, std::allocator<unsigned int>>::_Vector_impl" = type { %"struct.std::_Vector_base<unsigned int, std::allocator<unsigned int>>::_Vector_impl_data" }
%"struct.std::_Vector_base<unsigned int, std::allocator<unsigned int>>::_Vector_impl_data" = type { ptr, ptr, ptr }
%"class.std::vector.0" = type { %"struct.std::_Vector_base.1" }
%"struct.std::_Vector_base.1" = type { %"struct.std::_Vector_base<Luau::EqSat::Id, std::allocator<Luau::EqSat::Id>>::_Vector_impl" }
%"struct.std::_Vector_base<Luau::EqSat::Id, std::allocator<Luau::EqSat::Id>>::_Vector_impl" = type { %"struct.std::_Vector_base<Luau::EqSat::Id, std::allocator<Luau::EqSat::Id>>::_Vector_impl_data" }
%"struct.std::_Vector_base<Luau::EqSat::Id, std::allocator<Luau::EqSat::Id>>::_Vector_impl_data" = type { ptr, ptr, ptr }
%"struct.Luau::EqSat::Slice" = type { ptr, i64 }

; Function Attrs: mustprogress nounwind uwtable
define linkonce_odr dso_local noundef ptr @_ZNKSt6vectorIN4Luau5EqSat2IdESaIS2_EE11_M_data_ptrIS2_EEPT_S7_(ptr noundef nonnull align 8 dereferenceable(24) %0, ptr noundef %1) #5 comdat align 2 {
  %3 = alloca ptr, align 8
  %4 = alloca ptr, align 8
  store ptr %0, ptr %3, align 8, !tbaa !26
  store ptr %1, ptr %4, align 8, !tbaa !28
  %5 = load ptr, ptr %4, align 8, !tbaa !28
  ret ptr %5
}

; Function Attrs: mustprogress nounwind uwtable
define linkonce_odr dso_local void @_ZN4Luau5EqSat5SliceIKNS0_2IdEEC2EPS3_m(ptr noundef nonnull align 8 dereferenceable(16) %0, ptr noundef %1, i64 noundef %2) unnamed_addr #5 comdat align 2 {
  %4 = alloca ptr, align 8
  %5 = alloca ptr, align 8
  %6 = alloca i64, align 8
  store ptr %0, ptr %4, align 8, !tbaa !48
  store ptr %1, ptr %5, align 8, !tbaa !28
  store i64 %2, ptr %6, align 8, !tbaa !38
  %7 = load ptr, ptr %4, align 8
  %8 = getelementptr inbounds nuw %"struct.Luau::EqSat::Slice", ptr %7, i32 0, i32 0
  %9 = load ptr, ptr %5, align 8, !tbaa !28
  store ptr %9, ptr %8, align 8, !tbaa !50
  %10 = getelementptr inbounds nuw %"struct.Luau::EqSat::Slice", ptr %7, i32 0, i32 1
  %11 = load i64, ptr %6, align 8, !tbaa !38
  store i64 %11, ptr %10, align 8, !tbaa !52
  ret void
}

; Function Attrs: mustprogress nounwind uwtable
define linkonce_odr dso_local noundef i64 @_ZNKSt6vectorIN4Luau5EqSat2IdESaIS2_EE4sizeEv(ptr noundef nonnull align 8 dereferenceable(24) %0) #5 comdat align 2 {
  %2 = alloca ptr, align 8
  store ptr %0, ptr %2, align 8, !tbaa !26
  %3 = load ptr, ptr %2, align 8
  %4 = getelementptr inbounds nuw %"struct.std::_Vector_base.1", ptr %3, i32 0, i32 0
  %5 = getelementptr inbounds nuw %"struct.std::_Vector_base<Luau::EqSat::Id, std::allocator<Luau::EqSat::Id>>::_Vector_impl_data", ptr %4, i32 0, i32 1
  %6 = load ptr, ptr %5, align 8, !tbaa !30
  %7 = getelementptr inbounds nuw %"struct.std::_Vector_base.1", ptr %3, i32 0, i32 0
  %8 = getelementptr inbounds nuw %"struct.std::_Vector_base<Luau::EqSat::Id, std::allocator<Luau::EqSat::Id>>::_Vector_impl_data", ptr %7, i32 0, i32 0
  %9 = load ptr, ptr %8, align 8, !tbaa !33
  %10 = ptrtoint ptr %6 to i64
  %11 = ptrtoint ptr %9 to i64
  %12 = sub i64 %10, %11
  %13 = sdiv exact i64 %12, 4
  ret i64 %13
}

; Function Attrs: mustprogress nounwind uwtable
define linkonce_odr dso_local noundef ptr @_ZNKSt6vectorIN4Luau5EqSat2IdESaIS2_EE4dataEv(ptr noundef nonnull align 8 dereferenceable(24) %0) #5 comdat align 2 {
  %2 = alloca ptr, align 8
  store ptr %0, ptr %2, align 8, !tbaa !26
  %3 = load ptr, ptr %2, align 8
  %4 = getelementptr inbounds nuw %"struct.std::_Vector_base.1", ptr %3, i32 0, i32 0
  %5 = getelementptr inbounds nuw %"struct.std::_Vector_base<Luau::EqSat::Id, std::allocator<Luau::EqSat::Id>>::_Vector_impl_data", ptr %4, i32 0, i32 0
  %6 = load ptr, ptr %5, align 8, !tbaa !33
  %7 = call noundef ptr @_ZNKSt6vectorIN4Luau5EqSat2IdESaIS2_EE11_M_data_ptrIS2_EEPT_S7_(ptr noundef nonnull align 8 dereferenceable(24) %3, ptr noundef %6) #4
  ret ptr %7
}

; Function Attrs: mustprogress uwtable
define dso_local { ptr, i64 } @_ZNK4Luau19EqSatSimplification6TTable8operandsEv(ptr noundef nonnull align 8 dereferenceable(48) %0) #6 align 2 {
  %2 = alloca %"struct.Luau::EqSat::Slice", align 8
  %3 = alloca ptr, align 8
  store ptr %0, ptr %3, align 8, !tbaa !22
  %4 = load ptr, ptr %3, align 8
  %5 = getelementptr inbounds nuw %"struct.Luau::EqSatSimplification::TTable", ptr %4, i32 0, i32 1
  %6 = call noundef ptr @_ZNKSt6vectorIN4Luau5EqSat2IdESaIS2_EE4dataEv(ptr noundef nonnull align 8 dereferenceable(24) %5) #4
  %7 = getelementptr inbounds nuw %"struct.Luau::EqSatSimplification::TTable", ptr %4, i32 0, i32 1
  %8 = call noundef i64 @_ZNKSt6vectorIN4Luau5EqSat2IdESaIS2_EE4sizeEv(ptr noundef nonnull align 8 dereferenceable(24) %7) #4
  call void @_ZN4Luau5EqSat5SliceIKNS0_2IdEEC2EPS3_m(ptr noundef nonnull align 8 dereferenceable(16) %2, ptr noundef %6, i64 noundef %8)
  %9 = load { ptr, i64 }, ptr %2, align 8
  ret { ptr, i64 } %9
}